; Function Attrs: mustprogress uwtable
define internal void @_ZN7rocksdb12_GLOBAL__N_121CountedSequentialFile14PositionedReadEmmRKNS_9IOOptionsEPNS_5SliceEPcPNS_14IODebugContextE(ptr dead_on_unwind noalias writable sret(%"class.rocksdb::IOStatus") align 8 %0, ptr noundef nonnull readonly align 8 captures(none) dereferenceable(32) %1, i64 noundef %2, i64 noundef %3, ptr noundef nonnull align 8 dereferenceable(84) %4, ptr noundef %5, ptr noundef %6, ptr noundef %7) unnamed_addr #0 align 2 personality ptr @__gxx_personality_v0 {
  %9 = getelementptr inbounds nuw i8, ptr %1, i64 8
  %10 = load ptr, ptr %9, align 8, !tbaa !75
  %11 = load ptr, ptr %10, align 8, !tbaa !4
  %12 = getelementptr inbounds nuw i8, ptr %11, i64 56
  %13 = load ptr, ptr %12, align 8
  tail call void %13(ptr dead_on_unwind writable sret(%"class.rocksdb::IOStatus") align 8 %0, ptr noundef nonnull align 8 dereferenceable(8) %10, i64 noundef %2, i64 noundef %3, ptr noundef nonnull align 8 dereferenceable(84) %4, ptr noundef %5, ptr noundef %6, ptr noundef %7)
  %14 = getelementptr inbounds nuw i8, ptr %1, i64 24
  %15 = load ptr, ptr %14, align 8, !tbaa !79
  %16 = getelementptr inbounds nuw i8, ptr %5, i64 8
  %17 = load i64, ptr %16, align 8, !tbaa !168
  %18 = load i8, ptr %0, align 8, !tbaa !64
  %19 = icmp eq i8 %18, 3
  br i1 %19, label %_ZN7rocksdb9OpCounter8RecordOpERKNS_8IOStatusEm.exit, label %20

20:                                               ; preds = %8
  %21 = getelementptr inbounds nuw i8, ptr %15, i64 88
  %22 = atomicrmw add ptr %21, i32 1 monotonic, align 4
  %.pr.i = load i8, ptr %0, align 8, !tbaa !64
  %23 = icmp eq i8 %.pr.i, 0
  br i1 %23, label %24, label %_ZN7rocksdb9OpCounter8RecordOpERKNS_8IOStatusEm.exit

24:                                               ; preds = %20
  %25 = getelementptr inbounds nuw i8, ptr %15, i64 96
  %26 = atomicrmw add ptr %25, i64 %17 monotonic, align 8
  br label %_ZN7rocksdb9OpCounter8RecordOpERKNS_8IOStatusEm.exit

_ZN7rocksdb9OpCounter8RecordOpERKNS_8IOStatusEm.exit: ; preds = %24, %20, %8
  ret void
}